target datalayout = "e-m:e-p270:32:32-p271:32:32-p272:64:64-i64:64-i128:128-f80:128-n8:16:32:64-S128"
target triple = "x86_64-pc-linux-gnu"

%class.BuildContext = type { %class.rcContext.base, [28 x i64], [28 x i64], [1000 x ptr], i32, [8000 x i8], i32 }
%class.rcContext.base = type <{ ptr, i8, i8 }>
%struct.__va_list_tag = type { i32, i32, ptr, ptr }

@.str = private unnamed_addr constant [2 x i8] c"\0A\00", align 1
@__const._ZN12BuildContext7dumpLogEPKcz.TAB_STOPS = private unnamed_addr constant [4 x i32] [i32 28, i32 36, i32 44, i32 52], align 16

; Function Attrs: mustprogress uwtable
define dso_local void @_ZN12BuildContext7dumpLogEPKcz(ptr noundef nonnull align 8 dereferenceable(16472) %0, ptr noundef %1, ...) #0 align 2 {
  %3 = alloca ptr, align 8
  %4 = alloca ptr, align 8
  %5 = alloca [1 x %struct.__va_list_tag], align 16
  %6 = alloca [4 x i32], align 16
  %7 = alloca i32, align 4
  %8 = alloca ptr, align 8
  %9 = alloca i32, align 4
  %10 = alloca i32, align 4
  %11 = alloca i32, align 4
  store ptr %0, ptr %3, align 8
  store ptr %1, ptr %4, align 8
  %12 = load ptr, ptr %3, align 8
  %13 = getelementptr inbounds [1 x %struct.__va_list_tag], ptr %5, i64 0, i64 0
  call void @llvm.va_start(ptr %13)
  %14 = load ptr, ptr %4, align 8
  %15 = getelementptr inbounds [1 x %struct.__va_list_tag], ptr %5, i64 0, i64 0
  %16 = call i32 @vprintf(ptr noundef %14, ptr noundef %15) #8
  %17 = getelementptr inbounds [1 x %struct.__va_list_tag], ptr %5, i64 0, i64 0
  call void @llvm.va_end(ptr %17)
  %18 = call i32 (ptr, ...) @printf(ptr noundef @.str)
  call void @llvm.memcpy.p0.p0.i64(ptr align 16 %6, ptr align 16 @__const._ZN12BuildContext7dumpLogEPKcz.TAB_STOPS, i64 16, i1 false)
  store i32 0, ptr %7, align 4
  br label %19

19:                                               ; preds = %84, %2
  %20 = load i32, ptr %7, align 4
  %21 = getelementptr inbounds %class.BuildContext, ptr %12, i32 0, i32 4
  %22 = load i32, ptr %21, align 8
  %23 = icmp slt i32 %20, %22
  br i1 %23, label %24, label %87

24:                                               ; preds = %19
  %25 = getelementptr inbounds %class.BuildContext, ptr %12, i32 0, i32 3
  %26 = load i32, ptr %7, align 4
  %27 = sext i32 %26 to i64
  %28 = getelementptr inbounds [1000 x ptr], ptr %25, i64 0, i64 %27
  %29 = load ptr, ptr %28, align 8
  %30 = getelementptr inbounds i8, ptr %29, i64 1
  store ptr %30, ptr %8, align 8
  store i32 0, ptr %9, align 4
  br label %31

31:                                               ; preds = %79, %24
  %32 = load ptr, ptr %8, align 8
  %33 = load i8, ptr %32, align 1
  %34 = icmp ne i8 %33, 0
  br i1 %34, label %35, label %82

35:                                               ; preds = %31
  %36 = load ptr, ptr %8, align 8
  %37 = load i8, ptr %36, align 1
  %38 = sext i8 %37 to i32
  %39 = icmp eq i32 %38, 9
  br i1 %39, label %40, label %72

40:                                               ; preds = %35
  store i32 1, ptr %10, align 4
  store i32 0, ptr %11, align 4
  br label %41

41:                                               ; preds = %59, %40
  %42 = load i32, ptr %11, align 4
  %43 = icmp slt i32 %42, 4
  br i1 %43, label %44, label %62

44:                                               ; preds = %41
  %45 = load i32, ptr %9, align 4
  %46 = load i32, ptr %11, align 4
  %47 = sext i32 %46 to i64
  %48 = getelementptr inbounds [4 x i32], ptr %6, i64 0, i64 %47
  %49 = load i32, ptr %48, align 4
  %50 = icmp slt i32 %45, %49
  br i1 %50, label %51, label %58

51:                                               ; preds = %44
  %52 = load i32, ptr %11, align 4
  %53 = sext i32 %52 to i64
  %54 = getelementptr inbounds [4 x i32], ptr %6, i64 0, i64 %53
  %55 = load i32, ptr %54, align 4
  %56 = load i32, ptr %9, align 4
  %57 = sub nsw i32 %55, %56
  store i32 %57, ptr %10, align 4
  br label %62

58:                                               ; preds = %44
  br label %59

59:                                               ; preds = %58
  %60 = load i32, ptr %11, align 4
  %61 = add nsw i32 %60, 1
  store i32 %61, ptr %11, align 4
  br label %41, !llvm.loop !7

62:                                               ; preds = %51, %41
  br label %63

63:                                               ; preds = %67, %62
  %64 = load i32, ptr %10, align 4
  %65 = add nsw i32 %64, -1
  store i32 %65, ptr %10, align 4
  %66 = icmp ne i32 %65, 0
  br i1 %66, label %67, label %71

67:                                               ; preds = %63
  %68 = call i32 @putchar(i32 noundef 32)
  %69 = load i32, ptr %9, align 4
  %70 = add nsw i32 %69, 1
  store i32 %70, ptr %9, align 4
  br label %63, !llvm.loop !8

71:                                               ; preds = %63
  br label %79

72:                                               ; preds = %35
  %73 = load ptr, ptr %8, align 8
  %74 = load i8, ptr %73, align 1
  %75 = sext i8 %74 to i32
  %76 = call i32 @putchar(i32 noundef %75)
  %77 = load i32, ptr %9, align 4
  %78 = add nsw i32 %77, 1
  store i32 %78, ptr %9, align 4
  br label %79

79:                                               ; preds = %72, %71
  %80 = load ptr, ptr %8, align 8
  %81 = getelementptr inbounds i8, ptr %80, i32 1
  store ptr %81, ptr %8, align 8
  br label %31, !llvm.loop !9

82:                                               ; preds = %31
  %83 = call i32 @putchar(i32 noundef 10)
  br label %84

84:                                               ; preds = %82
  %85 = load i32, ptr %7, align 4
  %86 = add nsw i32 %85, 1
  store i32 %86, ptr %7, align 4
  br label %19, !llvm.loop !10

87:                                               ; preds = %19
  ret void
}