; Function Attrs: mustprogress nofree nounwind uwtable
define dso_local void @_ZN12BuildContext7dumpLogEPKcz(ptr nocapture noundef nonnull readonly align 8 dereferenceable(16472) %0, ptr nocapture noundef readonly %1, ...) local_unnamed_addr #6 align 2 {
  %3 = alloca [1 x %struct.__va_list_tag], align 16
  call void @llvm.va_start(ptr nonnull %3)
  %4 = call i32 @vprintf(ptr noundef %1, ptr noundef nonnull %3) #17
  call void @llvm.va_end(ptr nonnull %3)
  %putchar = call i32 @putchar(i32 10)
  %5 = getelementptr inbounds i8, ptr %0, i64 8464
  %6 = load i32, ptr %5, align 8
  %7 = icmp sgt i32 %6, 0
  br i1 %7, label %.lr.ph32, label %._crit_edge

.lr.ph32:                                         ; preds = %2
  %8 = getelementptr inbounds i8, ptr %0, i64 464
  br label %9

9:                                                ; preds = %.lr.ph32, %28
  %indvars.iv36 = phi i64 [ 0, %.lr.ph32 ], [ %indvars.iv.next37, %28 ]
  %10 = getelementptr inbounds [1000 x ptr], ptr %8, i64 0, i64 %indvars.iv36
  %11 = load ptr, ptr %10, align 8
  br label %12

12:                                               ; preds = %.loopexit, %9
  %.pn = phi ptr [ %11, %9 ], [ %.020, %.loopexit ]
  %.018 = phi i32 [ 0, %9 ], [ %.2, %.loopexit ]
  %.020 = getelementptr inbounds i8, ptr %.pn, i64 1
  %13 = load i8, ptr %.020, align 1
  switch i8 %13, label %23 [
    i8 0, label %28
    i8 9, label %.preheader
  ]

14:                                               ; preds = %.preheader
  %indvars.iv.next = add nuw nsw i64 %indvars.iv, 1
  %exitcond.not = icmp eq i64 %indvars.iv.next, 4
  br i1 %exitcond.not, label %.loopexit, label %.preheader, !llvm.loop !5

.preheader:                                       ; preds = %12, %14
  %indvars.iv = phi i64 [ %indvars.iv.next, %14 ], [ 0, %12 ]
  %15 = getelementptr inbounds [4 x i32], ptr @__const._ZN12BuildContext7dumpLogEPKcz.TAB_STOPS, i64 0, i64 %indvars.iv
  %16 = load i32, ptr %15, align 4
  %17 = icmp slt i32 %.018, %16
  br i1 %17, label %.loopexit27, label %14

.loopexit27:                                      ; preds = %.preheader
  %18 = xor i32 %.018, -1
  %19 = add i32 %16, %18
  %.not2629 = icmp eq i32 %19, 0
  br i1 %.not2629, label %.loopexit, label %.lr.ph

.lr.ph:                                           ; preds = %.loopexit27, %.lr.ph
  %20 = phi i32 [ %22, %.lr.ph ], [ %19, %.loopexit27 ]
  %21 = call i32 @putchar(i32 noundef 32)
  %22 = add nsw i32 %20, -1
  %.not26 = icmp eq i32 %22, 0
  br i1 %.not26, label %.loopexit.loopexit, label %.lr.ph, !llvm.loop !7

23:                                               ; preds = %12
  %24 = sext i8 %13 to i32
  %25 = call i32 @putchar(i32 noundef %24)
  %26 = add nsw i32 %.018, 1
  br label %.loopexit

.loopexit.loopexit:                               ; preds = %.lr.ph
  %27 = add i32 %16, -1
  br label %.loopexit

.loopexit:                                        ; preds = %14, %.loopexit.loopexit, %.loopexit27, %23
  %.2 = phi i32 [ %26, %23 ], [ %.018, %.loopexit27 ], [ %27, %.loopexit.loopexit ], [ %.018, %14 ]
  br label %12, !llvm.loop !8

28:                                               ; preds = %12
  %29 = call i32 @putchar(i32 noundef 10)
  %indvars.iv.next37 = add nuw nsw i64 %indvars.iv36, 1
  %30 = load i32, ptr %5, align 8
  %31 = sext i32 %30 to i64
  %32 = icmp slt i64 %indvars.iv.next37, %31
  br i1 %32, label %9, label %._crit_edge, !llvm.loop !9

._crit_edge:                                      ; preds = %28, %2
  ret void
}